target datalayout = "e-m:e-p270:32:32-p271:32:32-p272:64:64-i64:64-i128:128-f80:128-n8:16:32:64-S128"
target triple = "x86_64-pc-linux-gnu"

%"class.std::_Function_base" = type { %"union.std::_Any_data", ptr }
%"union.std::_Any_data" = type { %"union.std::_Nocopy_types" }
%"union.std::_Nocopy_types" = type { { i64, i64 } }
%"class.glslang::TQualifier" = type <{ ptr, i64, i8, [3 x i8], i32, i32, i64, i64, i8, i8, i8, i8, i8, [3 x i8], i32, i8, i8, i8, i8, i32, ptr, i8, i8, [6 x i8] }>
%"struct.glslang::TSourceLoc" = type { ptr, i32, i32, i32 }
%"class.glslang::TType" = type { ptr, i32, [4 x i8], %"class.glslang::TQualifier", ptr, %union.anon.267, ptr, ptr, %"struct.glslang::TSampler", ptr, ptr }
%union.anon.267 = type { ptr }
%"struct.glslang::TSampler" = type { i32 }
%"struct.glslang::TTypeLoc" = type { ptr, %"struct.glslang::TSourceLoc" }
%"struct.std::_Vector_base.286" = type { %"struct.std::_Vector_base<glslang::TTypeLoc, glslang::pool_allocator<glslang::TTypeLoc>>::_Vector_impl" }
%"struct.std::_Vector_base<glslang::TTypeLoc, glslang::pool_allocator<glslang::TTypeLoc>>::_Vector_impl" = type { %"class.glslang::pool_allocator.287", %"struct.std::_Vector_base<glslang::TTypeLoc, glslang::pool_allocator<glslang::TTypeLoc>>::_Vector_impl_data" }
%"class.glslang::pool_allocator.287" = type { ptr }
%"struct.std::_Vector_base<glslang::TTypeLoc, glslang::pool_allocator<glslang::TTypeLoc>>::_Vector_impl_data" = type { ptr, ptr, ptr }
%"class.std::function.346" = type { %"class.std::_Function_base", ptr }
%class.anon.349 = type { ptr }

; Function Attrs: mustprogress nounwind uwtable
define linkonce_odr noundef zeroext i1 @_ZNKSt14_Function_base8_M_emptyEv(ptr noundef nonnull align 8 dereferenceable(24) %0) #0 comdat align 2 {
  %2 = alloca ptr, align 8
  store ptr %0, ptr %2, align 8
  %3 = load ptr, ptr %2, align 8
  %4 = getelementptr inbounds %"class.std::_Function_base", ptr %3, i32 0, i32 1
  %5 = load ptr, ptr %4, align 8
  %6 = icmp ne ptr %5, null
  %7 = xor i1 %6, true
  ret i1 %7
}

; Function Attrs: mustprogress nounwind uwtable
define linkonce_odr noundef zeroext i1 @_ZNKSt8functionIFbRN7glslang5TTypeES2_EEclES2_S2_(ptr noundef nonnull align 8 dereferenceable(32) %0, ptr noundef nonnull align 8 dereferenceable(152) %1, ptr noundef nonnull align 8 dereferenceable(152) %2) #0 comdat align 2 {
  %4 = alloca ptr, align 8
  %5 = alloca ptr, align 8
  %6 = alloca ptr, align 8
  store ptr %0, ptr %4, align 8
  store ptr %1, ptr %5, align 8
  store ptr %2, ptr %6, align 8
  %7 = load ptr, ptr %4, align 8
  %8 = call noundef zeroext i1 @_ZNKSt14_Function_base8_M_emptyEv(ptr noundef nonnull align 8 dereferenceable(24) %7)
  br i1 %8, label %9, label %10

9:                                                ; preds = %3
  call void @_ZSt25__throw_bad_function_callv() #16
  unreachable

10:                                               ; preds = %3
  %11 = getelementptr inbounds %"class.std::function.346", ptr %7, i32 0, i32 1
  %12 = load ptr, ptr %11, align 8
  %13 = getelementptr inbounds %"class.std::_Function_base", ptr %7, i32 0, i32 0
  %14 = load ptr, ptr %5, align 8
  %15 = load ptr, ptr %6, align 8
  %16 = call noundef zeroext i1 %12(ptr noundef nonnull align 8 dereferenceable(16) %13, ptr noundef nonnull align 8 dereferenceable(152) %14, ptr noundef nonnull align 8 dereferenceable(152) %15)
  ret i1 %16
}

; Function Attrs: mustprogress nounwind uwtable
define linkonce_odr noundef nonnull align 8 dereferenceable(32) ptr @_ZNKSt6vectorIN7glslang8TTypeLocENS0_14pool_allocatorIS1_EEEixEm(ptr noundef nonnull align 8 dereferenceable(32) %0, i64 noundef %1) #0 comdat align 2 {
  %3 = alloca ptr, align 8
  %4 = alloca i64, align 8
  store ptr %0, ptr %3, align 8
  store i64 %1, ptr %4, align 8
  %5 = load ptr, ptr %3, align 8
  %6 = getelementptr inbounds %"struct.std::_Vector_base.286", ptr %5, i32 0, i32 0
  %7 = getelementptr inbounds i8, ptr %6, i64 8
  %8 = getelementptr inbounds %"struct.std::_Vector_base<glslang::TTypeLoc, glslang::pool_allocator<glslang::TTypeLoc>>::_Vector_impl_data", ptr %7, i32 0, i32 0
  %9 = load ptr, ptr %8, align 8
  %10 = load i64, ptr %4, align 8
  %11 = getelementptr inbounds %"struct.glslang::TTypeLoc", ptr %9, i64 %10
  ret ptr %11
}

; Function Attrs: mustprogress nounwind uwtable
define linkonce_odr noundef i64 @_ZNKSt6vectorIN7glslang8TTypeLocENS0_14pool_allocatorIS1_EEE4sizeEv(ptr noundef nonnull align 8 dereferenceable(32) %0) #0 comdat align 2 {
  %2 = alloca ptr, align 8
  store ptr %0, ptr %2, align 8
  %3 = load ptr, ptr %2, align 8
  %4 = getelementptr inbounds %"struct.std::_Vector_base.286", ptr %3, i32 0, i32 0
  %5 = getelementptr inbounds i8, ptr %4, i64 8
  %6 = getelementptr inbounds %"struct.std::_Vector_base<glslang::TTypeLoc, glslang::pool_allocator<glslang::TTypeLoc>>::_Vector_impl_data", ptr %5, i32 0, i32 1
  %7 = load ptr, ptr %6, align 8
  %8 = getelementptr inbounds %"struct.std::_Vector_base.286", ptr %3, i32 0, i32 0
  %9 = getelementptr inbounds i8, ptr %8, i64 8
  %10 = getelementptr inbounds %"struct.std::_Vector_base<glslang::TTypeLoc, glslang::pool_allocator<glslang::TTypeLoc>>::_Vector_impl_data", ptr %9, i32 0, i32 0
  %11 = load ptr, ptr %10, align 8
  %12 = ptrtoint ptr %7 to i64
  %13 = ptrtoint ptr %11 to i64
  %14 = sub i64 %12, %13
  %15 = sdiv exact i64 %14, 32
  ret i64 %15
}

; Function Attrs: mustprogress nounwind uwtable
define linkonce_odr noundef ptr @_ZNK7glslang5TType9getStructEv(ptr noundef nonnull align 8 dereferenceable(152) %0) #0 comdat align 2 {
  %2 = alloca ptr, align 8
  store ptr %0, ptr %2, align 8
  %3 = load ptr, ptr %2, align 8
  %4 = getelementptr inbounds %"class.glslang::TType", ptr %3, i32 0, i32 5
  %5 = load ptr, ptr %4, align 8
  ret ptr %5
}

; Function Attrs: mustprogress nounwind uwtable
define internal noundef zeroext i1 @"_ZZN7glslang16HlslParseContext21shareStructBufferTypeERNS_5TTypeEENK3$_0clES2_S2_"(ptr noundef nonnull align 8 dereferenceable(8) %0, ptr noundef nonnull align 8 dereferenceable(152) %1, ptr noundef nonnull align 8 dereferenceable(152) %2) #0 align 2 {
  %4 = alloca i1, align 1
  %5 = alloca ptr, align 8
  %6 = alloca ptr, align 8
  %7 = alloca ptr, align 8
  %8 = alloca i32, align 4
  store ptr %0, ptr %5, align 8
  store ptr %1, ptr %6, align 8
  store ptr %2, ptr %7, align 8
  %9 = load ptr, ptr %5, align 8
  %10 = load ptr, ptr %6, align 8
  %11 = load ptr, ptr %10, align 8
  %12 = getelementptr inbounds ptr, ptr %11, i64 10
  %13 = load ptr, ptr %12, align 8
  %14 = call noundef nonnull align 8 dereferenceable(80) ptr %13(ptr noundef nonnull align 8 dereferenceable(152) %10)
  %15 = getelementptr inbounds %"class.glslang::TQualifier", ptr %14, i32 0, i32 4
  %16 = load i32, ptr %15, align 4
  %17 = load ptr, ptr %7, align 8
  %18 = load ptr, ptr %17, align 8
  %19 = getelementptr inbounds ptr, ptr %18, i64 10
  %20 = load ptr, ptr %19, align 8
  %21 = call noundef nonnull align 8 dereferenceable(80) ptr %20(ptr noundef nonnull align 8 dereferenceable(152) %17)
  %22 = getelementptr inbounds %"class.glslang::TQualifier", ptr %21, i32 0, i32 4
  %23 = load i32, ptr %22, align 4
  %24 = icmp ne i32 %16, %23
  br i1 %24, label %25, label %26

25:                                               ; preds = %3
  store i1 false, ptr %4, align 1
  br label %118

26:                                               ; preds = %3
  %27 = load ptr, ptr %6, align 8
  %28 = load ptr, ptr %27, align 8
  %29 = getelementptr inbounds ptr, ptr %28, i64 37
  %30 = load ptr, ptr %29, align 8
  %31 = call noundef zeroext i1 %30(ptr noundef nonnull align 8 dereferenceable(152) %27)
  %32 = zext i1 %31 to i32
  %33 = load ptr, ptr %7, align 8
  %34 = load ptr, ptr %33, align 8
  %35 = getelementptr inbounds ptr, ptr %34, i64 37
  %36 = load ptr, ptr %35, align 8
  %37 = call noundef zeroext i1 %36(ptr noundef nonnull align 8 dereferenceable(152) %33)
  %38 = zext i1 %37 to i32
  %39 = icmp ne i32 %32, %38
  br i1 %39, label %40, label %41

40:                                               ; preds = %26
  store i1 false, ptr %4, align 1
  br label %118

41:                                               ; preds = %26
  %42 = load ptr, ptr %6, align 8
  %43 = load ptr, ptr %42, align 8
  %44 = getelementptr inbounds ptr, ptr %43, i64 10
  %45 = load ptr, ptr %44, align 8
  %46 = call noundef nonnull align 8 dereferenceable(80) ptr %45(ptr noundef nonnull align 8 dereferenceable(152) %42)
  %47 = getelementptr inbounds %"class.glslang::TQualifier", ptr %46, i32 0, i32 1
  %48 = load i64, ptr %47, align 8
  %49 = lshr i64 %48, 7
  %50 = and i64 %49, 511
  %51 = trunc i64 %50 to i32
  %52 = load ptr, ptr %7, align 8
  %53 = load ptr, ptr %52, align 8
  %54 = getelementptr inbounds ptr, ptr %53, i64 10
  %55 = load ptr, ptr %54, align 8
  %56 = call noundef nonnull align 8 dereferenceable(80) ptr %55(ptr noundef nonnull align 8 dereferenceable(152) %52)
  %57 = getelementptr inbounds %"class.glslang::TQualifier", ptr %56, i32 0, i32 1
  %58 = load i64, ptr %57, align 8
  %59 = lshr i64 %58, 7
  %60 = and i64 %59, 511
  %61 = trunc i64 %60 to i32
  %62 = icmp ne i32 %51, %61
  br i1 %62, label %63, label %64

63:                                               ; preds = %41
  store i1 false, ptr %4, align 1
  br label %118

64:                                               ; preds = %41
  %65 = load ptr, ptr %6, align 8
  %66 = load ptr, ptr %65, align 8
  %67 = getelementptr inbounds ptr, ptr %66, i64 37
  %68 = load ptr, ptr %67, align 8
  %69 = call noundef zeroext i1 %68(ptr noundef nonnull align 8 dereferenceable(152) %65)
  br i1 %69, label %70, label %117

70:                                               ; preds = %64
  %71 = load ptr, ptr %7, align 8
  %72 = load ptr, ptr %71, align 8
  %73 = getelementptr inbounds ptr, ptr %72, i64 37
  %74 = load ptr, ptr %73, align 8
  %75 = call noundef zeroext i1 %74(ptr noundef nonnull align 8 dereferenceable(152) %71)
  br i1 %75, label %76, label %117

76:                                               ; preds = %70
  %77 = load ptr, ptr %6, align 8
  %78 = call noundef ptr @_ZNK7glslang5TType9getStructEv(ptr noundef nonnull align 8 dereferenceable(152) %77)
  %79 = call noundef i64 @_ZNKSt6vectorIN7glslang8TTypeLocENS0_14pool_allocatorIS1_EEE4sizeEv(ptr noundef nonnull align 8 dereferenceable(32) %78) #13
  %80 = load ptr, ptr %7, align 8
  %81 = call noundef ptr @_ZNK7glslang5TType9getStructEv(ptr noundef nonnull align 8 dereferenceable(152) %80)
  %82 = call noundef i64 @_ZNKSt6vectorIN7glslang8TTypeLocENS0_14pool_allocatorIS1_EEE4sizeEv(ptr noundef nonnull align 8 dereferenceable(32) %81) #13
  %83 = icmp ne i64 %79, %82
  br i1 %83, label %84, label %85

84:                                               ; preds = %76
  store i1 false, ptr %4, align 1
  br label %118

85:                                               ; preds = %76
  store i32 0, ptr %8, align 4
  br label %86

86:                                               ; preds = %113, %85
  %87 = load i32, ptr %8, align 4
  %88 = load ptr, ptr %6, align 8
  %89 = call noundef ptr @_ZNK7glslang5TType9getStructEv(ptr noundef nonnull align 8 dereferenceable(152) %88)
  %90 = call noundef i64 @_ZNKSt6vectorIN7glslang8TTypeLocENS0_14pool_allocatorIS1_EEE4sizeEv(ptr noundef nonnull align 8 dereferenceable(32) %89) #13
  %91 = trunc i64 %90 to i32
  %92 = icmp slt i32 %87, %91
  br i1 %92, label %93, label %116

93:                                               ; preds = %86
  %94 = getelementptr inbounds %class.anon.349, ptr %9, i32 0, i32 0
  %95 = load ptr, ptr %94, align 8
  %96 = load ptr, ptr %6, align 8
  %97 = call noundef ptr @_ZNK7glslang5TType9getStructEv(ptr noundef nonnull align 8 dereferenceable(152) %96)
  %98 = load i32, ptr %8, align 4
  %99 = sext i32 %98 to i64
  %100 = call noundef nonnull align 8 dereferenceable(32) ptr @_ZNKSt6vectorIN7glslang8TTypeLocENS0_14pool_allocatorIS1_EEEixEm(ptr noundef nonnull align 8 dereferenceable(32) %97, i64 noundef %99) #13
  %101 = getelementptr inbounds %"struct.glslang::TTypeLoc", ptr %100, i32 0, i32 0
  %102 = load ptr, ptr %101, align 8
  %103 = load ptr, ptr %7, align 8
  %104 = call noundef ptr @_ZNK7glslang5TType9getStructEv(ptr noundef nonnull align 8 dereferenceable(152) %103)
  %105 = load i32, ptr %8, align 4
  %106 = sext i32 %105 to i64
  %107 = call noundef nonnull align 8 dereferenceable(32) ptr @_ZNKSt6vectorIN7glslang8TTypeLocENS0_14pool_allocatorIS1_EEEixEm(ptr noundef nonnull align 8 dereferenceable(32) %104, i64 noundef %106) #13
  %108 = getelementptr inbounds %"struct.glslang::TTypeLoc", ptr %107, i32 0, i32 0
  %109 = load ptr, ptr %108, align 8
  %110 = call noundef zeroext i1 @_ZNKSt8functionIFbRN7glslang5TTypeES2_EEclES2_S2_(ptr noundef nonnull align 8 dereferenceable(32) %95, ptr noundef nonnull align 8 dereferenceable(152) %102, ptr noundef nonnull align 8 dereferenceable(152) %109)
  br i1 %110, label %112, label %111

111:                                              ; preds = %93
  store i1 false, ptr %4, align 1
  br label %118

112:                                              ; preds = %93
  br label %113

113:                                              ; preds = %112
  %114 = load i32, ptr %8, align 4
  %115 = add nsw i32 %114, 1
  store i32 %115, ptr %8, align 4
  br label %86, !llvm.loop !252

116:                                              ; preds = %86
  br label %117

117:                                              ; preds = %116, %70, %64
  store i1 true, ptr %4, align 1
  br label %118

118:                                              ; preds = %117, %111, %84, %63, %40, %25
  %119 = load i1, ptr %4, align 1
  ret i1 %119
}

; Function Attrs: mustprogress nounwind uwtable
define linkonce_odr noundef ptr @_ZNKSt9_Any_data9_M_accessEv(ptr noundef nonnull align 8 dereferenceable(16) %0) #0 comdat align 2 {
  %2 = alloca ptr, align 8
  store ptr %0, ptr %2, align 8
  %3 = load ptr, ptr %2, align 8
  %4 = getelementptr inbounds [16 x i8], ptr %3, i64 0, i64 0
  ret ptr %4
}

; Function Attrs: mustprogress nounwind uwtable
define internal noundef zeroext i1 @"_ZSt13__invoke_implIbRZN7glslang16HlslParseContext21shareStructBufferTypeERNS0_5TTypeEE3$_0JS3_S3_EET_St14__invoke_otherOT0_DpOT1_"(ptr noundef nonnull align 8 dereferenceable(8) %0, ptr noundef nonnull align 8 dereferenceable(152) %1, ptr noundef nonnull align 8 dereferenceable(152) %2) #0 {
  %4 = alloca ptr, align 8
  %5 = alloca ptr, align 8
  %6 = alloca ptr, align 8
  store ptr %0, ptr %4, align 8
  store ptr %1, ptr %5, align 8
  store ptr %2, ptr %6, align 8
  %7 = load ptr, ptr %4, align 8
  %8 = load ptr, ptr %5, align 8
  %9 = load ptr, ptr %6, align 8
  %10 = call noundef zeroext i1 @"_ZZN7glslang16HlslParseContext21shareStructBufferTypeERNS_5TTypeEENK3$_0clES2_S2_"(ptr noundef nonnull align 8 dereferenceable(8) %7, ptr noundef nonnull align 8 dereferenceable(152) %8, ptr noundef nonnull align 8 dereferenceable(152) %9)
  ret i1 %10
}

; Function Attrs: mustprogress nounwind uwtable
define internal noundef nonnull align 8 dereferenceable(8) ptr @"_ZNKSt9_Any_data9_M_accessIZN7glslang16HlslParseContext21shareStructBufferTypeERNS1_5TTypeEE3$_0EERKT_v"(ptr noundef nonnull align 8 dereferenceable(16) %0) #0 align 2 {
  %2 = alloca ptr, align 8
  store ptr %0, ptr %2, align 8
  %3 = load ptr, ptr %2, align 8
  %4 = call noundef ptr @_ZNKSt9_Any_data9_M_accessEv(ptr noundef nonnull align 8 dereferenceable(16) %3) #13
  ret ptr %4
}

; Function Attrs: mustprogress nounwind uwtable
define internal noundef zeroext i1 @"_ZSt10__invoke_rIbRZN7glslang16HlslParseContext21shareStructBufferTypeERNS0_5TTypeEE3$_0JS3_S3_EENSt9enable_ifIX16is_invocable_r_vIT_T0_DpT1_EES7_E4typeEOS8_DpOS9_"(ptr noundef nonnull align 8 dereferenceable(8) %0, ptr noundef nonnull align 8 dereferenceable(152) %1, ptr noundef nonnull align 8 dereferenceable(152) %2) #0 {
  %4 = alloca ptr, align 8
  %5 = alloca ptr, align 8
  %6 = alloca ptr, align 8
  store ptr %0, ptr %4, align 8
  store ptr %1, ptr %5, align 8
  store ptr %2, ptr %6, align 8
  %7 = load ptr, ptr %4, align 8
  %8 = load ptr, ptr %5, align 8
  %9 = load ptr, ptr %6, align 8
  %10 = call noundef zeroext i1 @"_ZSt13__invoke_implIbRZN7glslang16HlslParseContext21shareStructBufferTypeERNS0_5TTypeEE3$_0JS3_S3_EET_St14__invoke_otherOT0_DpOT1_"(ptr noundef nonnull align 8 dereferenceable(8) %7, ptr noundef nonnull align 8 dereferenceable(152) %8, ptr noundef nonnull align 8 dereferenceable(152) %9)
  ret i1 %10
}

; Function Attrs: mustprogress nounwind uwtable
define internal noundef ptr @"_ZNSt14_Function_base13_Base_managerIZN7glslang16HlslParseContext21shareStructBufferTypeERNS1_5TTypeEE3$_0E14_M_get_pointerERKSt9_Any_data"(ptr noundef nonnull align 8 dereferenceable(16) %0) #0 align 2 {
  %2 = alloca ptr, align 8
  %3 = alloca ptr, align 8
  store ptr %0, ptr %2, align 8
  %4 = load ptr, ptr %2, align 8
  %5 = call noundef nonnull align 8 dereferenceable(8) ptr @"_ZNKSt9_Any_data9_M_accessIZN7glslang16HlslParseContext21shareStructBufferTypeERNS1_5TTypeEE3$_0EERKT_v"(ptr noundef nonnull align 8 dereferenceable(16) %4) #13
  store ptr %5, ptr %3, align 8
  %6 = load ptr, ptr %3, align 8
  ret ptr %6
}

; Function Attrs: mustprogress nounwind uwtable
define internal noundef zeroext i1 @"_ZNSt17_Function_handlerIFbRN7glslang5TTypeES2_EZNS0_16HlslParseContext21shareStructBufferTypeES2_E3$_0E9_M_invokeERKSt9_Any_dataS2_S2_"(ptr noundef nonnull align 8 dereferenceable(16) %0, ptr noundef nonnull align 8 dereferenceable(152) %1, ptr noundef nonnull align 8 dereferenceable(152) %2) #0 align 2 {
  %4 = alloca ptr, align 8
  %5 = alloca ptr, align 8
  %6 = alloca ptr, align 8
  store ptr %0, ptr %4, align 8
  store ptr %1, ptr %5, align 8
  store ptr %2, ptr %6, align 8
  %7 = load ptr, ptr %4, align 8
  %8 = call noundef ptr @"_ZNSt14_Function_base13_Base_managerIZN7glslang16HlslParseContext21shareStructBufferTypeERNS1_5TTypeEE3$_0E14_M_get_pointerERKSt9_Any_data"(ptr noundef nonnull align 8 dereferenceable(16) %7) #13
  %9 = load ptr, ptr %5, align 8
  %10 = load ptr, ptr %6, align 8
  %11 = call noundef zeroext i1 @"_ZSt10__invoke_rIbRZN7glslang16HlslParseContext21shareStructBufferTypeERNS0_5TTypeEE3$_0JS3_S3_EENSt9enable_ifIX16is_invocable_r_vIT_T0_DpT1_EES7_E4typeEOS8_DpOS9_"(ptr noundef nonnull align 8 dereferenceable(8) %8, ptr noundef nonnull align 8 dereferenceable(152) %9, ptr noundef nonnull align 8 dereferenceable(152) %10)
  ret i1 %11
}