; Function Attrs: mustprogress nounwind uwtable
define internal noundef zeroext i1 @"_ZNSt17_Function_handlerIFbRN7glslang5TTypeES2_EZNS0_16HlslParseContext21shareStructBufferTypeES2_E3$_0E9_M_invokeERKSt9_Any_dataS2_S2_"(ptr nocapture noundef nonnull readonly align 8 dereferenceable(16) %0, ptr noundef nonnull align 8 dereferenceable(152) %1, ptr noundef nonnull align 8 dereferenceable(152) %2) #0 align 2 {
  %4 = load ptr, ptr %1, align 8
  %5 = getelementptr inbounds i8, ptr %4, i64 80
  %6 = load ptr, ptr %5, align 8
  %7 = tail call noundef nonnull align 8 dereferenceable(80) ptr %6(ptr noundef nonnull align 8 dereferenceable(152) %1) #24
  %8 = getelementptr inbounds i8, ptr %7, i64 20
  %9 = load i32, ptr %8, align 4
  %10 = load ptr, ptr %2, align 8
  %11 = getelementptr inbounds i8, ptr %10, i64 80
  %12 = load ptr, ptr %11, align 8
  %13 = tail call noundef nonnull align 8 dereferenceable(80) ptr %12(ptr noundef nonnull align 8 dereferenceable(152) %2) #24
  %14 = getelementptr inbounds i8, ptr %13, i64 20
  %15 = load i32, ptr %14, align 4
  %.not.i.i.i = icmp eq i32 %9, %15
  br i1 %.not.i.i.i, label %16, label %"_ZSt10__invoke_rIbRZN7glslang16HlslParseContext21shareStructBufferTypeERNS0_5TTypeEE3$_0JS3_S3_EENSt9enable_ifIX16is_invocable_r_vIT_T0_DpT1_EES7_E4typeEOS8_DpOS9_.exit"

16:                                               ; preds = %3
  %17 = load ptr, ptr %1, align 8
  %18 = getelementptr inbounds i8, ptr %17, i64 296
  %19 = load ptr, ptr %18, align 8
  %20 = tail call noundef zeroext i1 %19(ptr noundef nonnull align 8 dereferenceable(152) %1) #24
  %21 = load ptr, ptr %2, align 8
  %22 = getelementptr inbounds i8, ptr %21, i64 296
  %23 = load ptr, ptr %22, align 8
  %24 = tail call noundef zeroext i1 %23(ptr noundef nonnull align 8 dereferenceable(152) %2) #24
  %25 = xor i1 %20, %24
  br i1 %25, label %"_ZSt10__invoke_rIbRZN7glslang16HlslParseContext21shareStructBufferTypeERNS0_5TTypeEE3$_0JS3_S3_EENSt9enable_ifIX16is_invocable_r_vIT_T0_DpT1_EES7_E4typeEOS8_DpOS9_.exit", label %26

26:                                               ; preds = %16
  %27 = load ptr, ptr %1, align 8
  %28 = getelementptr inbounds i8, ptr %27, i64 80
  %29 = load ptr, ptr %28, align 8
  %30 = tail call noundef nonnull align 8 dereferenceable(80) ptr %29(ptr noundef nonnull align 8 dereferenceable(152) %1) #24
  %31 = getelementptr inbounds i8, ptr %30, i64 8
  %32 = load i64, ptr %31, align 8
  %33 = load ptr, ptr %2, align 8
  %34 = getelementptr inbounds i8, ptr %33, i64 80
  %35 = load ptr, ptr %34, align 8
  %36 = tail call noundef nonnull align 8 dereferenceable(80) ptr %35(ptr noundef nonnull align 8 dereferenceable(152) %2) #24
  %37 = getelementptr inbounds i8, ptr %36, i64 8
  %38 = load i64, ptr %37, align 8
  %39 = xor i64 %38, %32
  %40 = and i64 %39, 65408
  %.not20.i.i.i = icmp eq i64 %40, 0
  br i1 %.not20.i.i.i, label %41, label %"_ZSt10__invoke_rIbRZN7glslang16HlslParseContext21shareStructBufferTypeERNS0_5TTypeEE3$_0JS3_S3_EENSt9enable_ifIX16is_invocable_r_vIT_T0_DpT1_EES7_E4typeEOS8_DpOS9_.exit"

41:                                               ; preds = %26
  %42 = load ptr, ptr %1, align 8
  %43 = getelementptr inbounds i8, ptr %42, i64 296
  %44 = load ptr, ptr %43, align 8
  %45 = tail call noundef zeroext i1 %44(ptr noundef nonnull align 8 dereferenceable(152) %1) #24
  br i1 %45, label %46, label %"_ZSt10__invoke_rIbRZN7glslang16HlslParseContext21shareStructBufferTypeERNS0_5TTypeEE3$_0JS3_S3_EENSt9enable_ifIX16is_invocable_r_vIT_T0_DpT1_EES7_E4typeEOS8_DpOS9_.exit"

46:                                               ; preds = %41
  %47 = load ptr, ptr %2, align 8
  %48 = getelementptr inbounds i8, ptr %47, i64 296
  %49 = load ptr, ptr %48, align 8
  %50 = tail call noundef zeroext i1 %49(ptr noundef nonnull align 8 dereferenceable(152) %2) #24
  br i1 %50, label %51, label %"_ZSt10__invoke_rIbRZN7glslang16HlslParseContext21shareStructBufferTypeERNS0_5TTypeEE3$_0JS3_S3_EENSt9enable_ifIX16is_invocable_r_vIT_T0_DpT1_EES7_E4typeEOS8_DpOS9_.exit"

51:                                               ; preds = %46
  %52 = getelementptr inbounds i8, ptr %1, i64 104
  %53 = load ptr, ptr %52, align 8
  %54 = getelementptr inbounds i8, ptr %53, i64 8
  %55 = getelementptr inbounds i8, ptr %53, i64 16
  %56 = load ptr, ptr %55, align 8
  %57 = load ptr, ptr %54, align 8
  %58 = ptrtoint ptr %56 to i64
  %59 = ptrtoint ptr %57 to i64
  %60 = sub i64 %58, %59
  %61 = getelementptr inbounds i8, ptr %2, i64 104
  %62 = load ptr, ptr %61, align 8
  %63 = getelementptr inbounds i8, ptr %62, i64 8
  %64 = getelementptr inbounds i8, ptr %62, i64 16
  %65 = load ptr, ptr %64, align 8
  %66 = load ptr, ptr %63, align 8
  %67 = ptrtoint ptr %65 to i64
  %68 = ptrtoint ptr %66 to i64
  %69 = sub i64 %67, %68
  %.not21.i.i.i = icmp eq i64 %60, %69
  br i1 %.not21.i.i.i, label %.preheader.i.i.i, label %"_ZSt10__invoke_rIbRZN7glslang16HlslParseContext21shareStructBufferTypeERNS0_5TTypeEE3$_0JS3_S3_EENSt9enable_ifIX16is_invocable_r_vIT_T0_DpT1_EES7_E4typeEOS8_DpOS9_.exit"

.preheader.i.i.i:                                 ; preds = %51
  %70 = lshr exact i64 %60, 5
  %71 = trunc i64 %70 to i32
  %72 = icmp sgt i32 %71, 0
  br i1 %72, label %.lr.ph.i.i.i, label %"_ZSt10__invoke_rIbRZN7glslang16HlslParseContext21shareStructBufferTypeERNS0_5TTypeEE3$_0JS3_S3_EENSt9enable_ifIX16is_invocable_r_vIT_T0_DpT1_EES7_E4typeEOS8_DpOS9_.exit"

73:                                               ; preds = %_ZNKSt8functionIFbRN7glslang5TTypeES2_EEclES2_S2_.exit.i.i.i
  %indvars.iv.next.i.i.i = add nuw nsw i64 %indvars.iv.i.i.i, 1
  %74 = load ptr, ptr %52, align 8
  %75 = getelementptr inbounds i8, ptr %74, i64 8
  %76 = getelementptr inbounds i8, ptr %74, i64 16
  %77 = load ptr, ptr %76, align 8
  %78 = load ptr, ptr %75, align 8
  %79 = ptrtoint ptr %77 to i64
  %80 = ptrtoint ptr %78 to i64
  %81 = sub i64 %79, %80
  %sext.i.i.i = shl i64 %81, 27
  %82 = ashr i64 %sext.i.i.i, 32
  %83 = icmp slt i64 %indvars.iv.next.i.i.i, %82
  br i1 %83, label %.lr.ph.i.i.i, label %"_ZSt10__invoke_rIbRZN7glslang16HlslParseContext21shareStructBufferTypeERNS0_5TTypeEE3$_0JS3_S3_EENSt9enable_ifIX16is_invocable_r_vIT_T0_DpT1_EES7_E4typeEOS8_DpOS9_.exit", !llvm.loop !535

.lr.ph.i.i.i:                                     ; preds = %.preheader.i.i.i, %73
  %indvars.iv.i.i.i = phi i64 [ %indvars.iv.next.i.i.i, %73 ], [ 0, %.preheader.i.i.i ]
  %84 = phi ptr [ %78, %73 ], [ %57, %.preheader.i.i.i ]
  %85 = load ptr, ptr %0, align 8
  %86 = getelementptr inbounds i8, ptr %85, i64 16
  %87 = load ptr, ptr %86, align 8
  %.not.i.i.i.i.i = icmp eq ptr %87, null
  br i1 %.not.i.i.i.i.i, label %88, label %_ZNKSt8functionIFbRN7glslang5TTypeES2_EEclES2_S2_.exit.i.i.i

88:                                               ; preds = %.lr.ph.i.i.i
  tail call void @_ZSt25__throw_bad_function_callv() #25
  unreachable

_ZNKSt8functionIFbRN7glslang5TTypeES2_EEclES2_S2_.exit.i.i.i: ; preds = %.lr.ph.i.i.i
  %89 = load ptr, ptr %61, align 8
  %90 = getelementptr inbounds i8, ptr %89, i64 8
  %91 = load ptr, ptr %90, align 8
  %92 = getelementptr inbounds %"struct.glslang::TTypeLoc", ptr %91, i64 %indvars.iv.i.i.i
  %93 = load ptr, ptr %92, align 8
  %94 = getelementptr inbounds %"struct.glslang::TTypeLoc", ptr %84, i64 %indvars.iv.i.i.i
  %95 = load ptr, ptr %94, align 8
  %96 = getelementptr inbounds i8, ptr %85, i64 24
  %97 = load ptr, ptr %96, align 8
  %98 = tail call noundef zeroext i1 %97(ptr noundef nonnull align 8 dereferenceable(16) %85, ptr noundef nonnull align 8 dereferenceable(152) %95, ptr noundef nonnull align 8 dereferenceable(152) %93) #24
  br i1 %98, label %73, label %"_ZSt10__invoke_rIbRZN7glslang16HlslParseContext21shareStructBufferTypeERNS0_5TTypeEE3$_0JS3_S3_EENSt9enable_ifIX16is_invocable_r_vIT_T0_DpT1_EES7_E4typeEOS8_DpOS9_.exit"

"_ZSt10__invoke_rIbRZN7glslang16HlslParseContext21shareStructBufferTypeERNS0_5TTypeEE3$_0JS3_S3_EENSt9enable_ifIX16is_invocable_r_vIT_T0_DpT1_EES7_E4typeEOS8_DpOS9_.exit": ; preds = %73, %_ZNKSt8functionIFbRN7glslang5TTypeES2_EEclES2_S2_.exit.i.i.i, %3, %16, %26, %41, %46, %51, %.preheader.i.i.i
  %.018.i.i.i = phi i1 [ false, %3 ], [ false, %16 ], [ false, %26 ], [ false, %51 ], [ true, %46 ], [ true, %41 ], [ true, %.preheader.i.i.i ], [ %98, %_ZNKSt8functionIFbRN7glslang5TTypeES2_EEclES2_S2_.exit.i.i.i ], [ %98, %73 ]
  ret i1 %.018.i.i.i
}